target datalayout = "e-m:e-p270:32:32-p271:32:32-p272:64:64-i64:64-i128:128-f80:128-n8:16:32:64-S128"
target triple = "x86_64-pc-linux-gnu"

%struct.DdManager = type { %struct.DdNode, ptr, ptr, ptr, ptr, ptr, ptr, ptr, i32, i32, double, double, double, i32, i32, i32, i32, i32, i32, ptr, ptr, %struct.DdSubtable, i32, i32, i32, i32, i32, i32, i32, double, i32, i32, i32, ptr, i64, double, i32, ptr, ptr, ptr, ptr, ptr, ptr, ptr, i32, ptr, ptr, ptr, ptr, ptr, ptr, i32, i32, i32, double, i32, i32, i32, i32, double, double, i32, i32, i32, i32, i32, i32, i32, i32, i32, ptr, ptr, i32, i32, i32, i32, i32, i32, ptr, ptr, ptr, ptr, ptr, ptr, ptr, ptr, i32, i64, i64, i64, i32, i64, i64, double, double, double, double, double, double, i32, ptr, ptr, i64 }
%struct.DdNode = type { i32, i32, ptr, %union.anon, i64 }
%union.anon = type { %struct.DdChildren }
%struct.DdChildren = type { ptr, ptr }
%struct.DdSubtable = type { ptr, i32, i32, i32, i32, i32, i32, i32, i32, i32, i32, i32 }

; Function Attrs: nounwind uwtable
define ptr @Cudd_addCompose(ptr noundef %0, ptr noundef %1, ptr noundef %2, i32 noundef %3) #0 {
  %5 = alloca ptr, align 8
  %6 = alloca ptr, align 8
  %7 = alloca ptr, align 8
  %8 = alloca ptr, align 8
  %9 = alloca i32, align 4
  %10 = alloca ptr, align 8
  %11 = alloca ptr, align 8
  %12 = alloca i32, align 4
  store ptr %0, ptr %6, align 8, !tbaa !3
  store ptr %1, ptr %7, align 8, !tbaa !8
  store ptr %2, ptr %8, align 8, !tbaa !8
  store i32 %3, ptr %9, align 4, !tbaa !10
  call void @llvm.lifetime.start.p0(i64 8, ptr %10) #6
  call void @llvm.lifetime.start.p0(i64 8, ptr %11) #6
  %13 = load i32, ptr %9, align 4, !tbaa !10
  %14 = icmp slt i32 %13, 0
  br i1 %14, label %21, label %15

15:                                               ; preds = %4
  %16 = load i32, ptr %9, align 4, !tbaa !10
  %17 = load ptr, ptr %6, align 8, !tbaa !3
  %18 = getelementptr inbounds nuw %struct.DdManager, ptr %17, i32 0, i32 15
  %19 = load i32, ptr %18, align 8, !tbaa !12
  %20 = icmp sge i32 %16, %19
  br i1 %20, label %21, label %22

21:                                               ; preds = %15, %4
  store ptr null, ptr %5, align 8
  store i32 1, ptr %12, align 4
  br label %45

22:                                               ; preds = %15
  %23 = load ptr, ptr %6, align 8, !tbaa !3
  %24 = getelementptr inbounds nuw %struct.DdManager, ptr %23, i32 0, i32 41
  %25 = load ptr, ptr %24, align 8, !tbaa !28
  %26 = load i32, ptr %9, align 4, !tbaa !10
  %27 = sext i32 %26 to i64
  %28 = getelementptr inbounds ptr, ptr %25, i64 %27
  %29 = load ptr, ptr %28, align 8, !tbaa !8
  store ptr %29, ptr %10, align 8, !tbaa !8
  br label %30

30:                                               ; preds = %38, %22
  %31 = load ptr, ptr %6, align 8, !tbaa !3
  %32 = getelementptr inbounds nuw %struct.DdManager, ptr %31, i32 0, i32 55
  store i32 0, ptr %32, align 8, !tbaa !29
  %33 = load ptr, ptr %6, align 8, !tbaa !3
  %34 = load ptr, ptr %7, align 8, !tbaa !8
  %35 = load ptr, ptr %8, align 8, !tbaa !8
  %36 = load ptr, ptr %10, align 8, !tbaa !8
  %37 = call ptr @cuddAddComposeRecur(ptr noundef %33, ptr noundef %34, ptr noundef %35, ptr noundef %36)
  store ptr %37, ptr %11, align 8, !tbaa !8
  br label %38

38:                                               ; preds = %30
  %39 = load ptr, ptr %6, align 8, !tbaa !3
  %40 = getelementptr inbounds nuw %struct.DdManager, ptr %39, i32 0, i32 55
  %41 = load i32, ptr %40, align 8, !tbaa !29
  %42 = icmp eq i32 %41, 1
  br i1 %42, label %30, label %43, !llvm.loop !36

43:                                               ; preds = %38
  %44 = load ptr, ptr %11, align 8, !tbaa !8
  store ptr %44, ptr %5, align 8
  store i32 1, ptr %12, align 4
  br label %45

45:                                               ; preds = %43, %21
  call void @llvm.lifetime.end.p0(i64 8, ptr %11) #6
  call void @llvm.lifetime.end.p0(i64 8, ptr %10) #6
  %46 = load ptr, ptr %5, align 8
  ret ptr %46
}